target datalayout = "e-m:e-p270:32:32-p271:32:32-p272:64:64-i64:64-i128:128-f80:128-n8:16:32:64-S128"
target triple = "x86_64-pc-linux-gnu"

%"class.tbb::detail::r1::concurrent_monitor" = type { %"class.tbb::detail::r1::concurrent_monitor_base.base", [4 x i8] }
%"class.tbb::detail::r1::concurrent_monitor_base.base" = type <{ %"class.tbb::detail::r1::concurrent_monitor_mutex", %"class.tbb::detail::r1::circular_doubly_linked_list_with_sentinel", %"struct.std::atomic.2" }>
%"class.tbb::detail::r1::concurrent_monitor_mutex" = type { %"struct.std::atomic", %"struct.std::atomic" }
%"struct.std::atomic" = type { %"struct.std::__atomic_base" }
%"struct.std::__atomic_base" = type { i32 }
%"class.tbb::detail::r1::circular_doubly_linked_list_with_sentinel" = type { %"struct.std::atomic.0", %"struct.tbb::detail::r1::circular_doubly_linked_list_with_sentinel::base_node" }
%"struct.std::atomic.0" = type { %"struct.std::__atomic_base.1" }
%"struct.std::__atomic_base.1" = type { i64 }
%"struct.tbb::detail::r1::circular_doubly_linked_list_with_sentinel::base_node" = type { ptr, ptr }
%"struct.std::atomic.2" = type { %"struct.std::__atomic_base.3" }
%"struct.std::__atomic_base.3" = type { i32 }
%"class.tbb::detail::r1::concurrent_monitor_base" = type <{ %"class.tbb::detail::r1::concurrent_monitor_mutex", %"class.tbb::detail::r1::circular_doubly_linked_list_with_sentinel", %"struct.std::atomic.2", [4 x i8] }>

; Function Attrs: mustprogress nounwind sspstrong uwtable
define linkonce_odr void @_ZNSt13__atomic_baseImEC2Em(ptr noundef nonnull align 8 dereferenceable(8) %0, i64 noundef %1) unnamed_addr #5 comdat align 2 {
  %3 = alloca ptr, align 8
  %4 = alloca i64, align 8
  store ptr %0, ptr %3, align 8, !tbaa !56
  store i64 %1, ptr %4, align 8, !tbaa !3
  %5 = load ptr, ptr %3, align 8
  %6 = getelementptr inbounds nuw %"struct.std::__atomic_base.1", ptr %5, i32 0, i32 0
  %7 = load i64, ptr %4, align 8, !tbaa !3
  store i64 %7, ptr %6, align 8, !tbaa !58
  ret void
}

; Function Attrs: mustprogress nounwind sspstrong uwtable
define linkonce_odr void @_ZNSt13__atomic_baseIiEC2Ei(ptr noundef nonnull align 4 dereferenceable(4) %0, i32 noundef %1) unnamed_addr #5 comdat align 2 {
  %3 = alloca ptr, align 8
  %4 = alloca i32, align 4
  store ptr %0, ptr %3, align 8, !tbaa !47
  store i32 %1, ptr %4, align 4, !tbaa !46
  %5 = load ptr, ptr %3, align 8
  %6 = getelementptr inbounds nuw %"struct.std::__atomic_base", ptr %5, i32 0, i32 0
  %7 = load i32, ptr %4, align 4, !tbaa !46
  store i32 %7, ptr %6, align 4, !tbaa !49
  ret void
}

; Function Attrs: mustprogress nounwind sspstrong uwtable
define linkonce_odr void @_ZN3tbb6detail2r141circular_doubly_linked_list_with_sentinel9base_nodeC2EPS3_S4_(ptr noundef nonnull align 8 dereferenceable(16) %0, ptr noundef %1, ptr noundef %2) unnamed_addr #5 comdat align 2 {
  %4 = alloca ptr, align 8
  %5 = alloca ptr, align 8
  %6 = alloca ptr, align 8
  store ptr %0, ptr %4, align 8, !tbaa !53
  store ptr %1, ptr %5, align 8, !tbaa !53
  store ptr %2, ptr %6, align 8, !tbaa !53
  %7 = load ptr, ptr %4, align 8
  %8 = getelementptr inbounds nuw %"struct.tbb::detail::r1::circular_doubly_linked_list_with_sentinel::base_node", ptr %7, i32 0, i32 0
  %9 = load ptr, ptr %5, align 8, !tbaa !53
  store ptr %9, ptr %8, align 8, !tbaa !54
  %10 = getelementptr inbounds nuw %"struct.tbb::detail::r1::circular_doubly_linked_list_with_sentinel::base_node", ptr %7, i32 0, i32 1
  %11 = load ptr, ptr %6, align 8, !tbaa !53
  store ptr %11, ptr %10, align 8, !tbaa !55
  ret void
}

; Function Attrs: mustprogress nounwind sspstrong uwtable
define linkonce_odr void @_ZNSt6atomicImEC2Em(ptr noundef nonnull align 8 dereferenceable(8) %0, i64 noundef %1) unnamed_addr #5 comdat align 2 {
  %3 = alloca ptr, align 8
  %4 = alloca i64, align 8
  store ptr %0, ptr %3, align 8, !tbaa !51
  store i64 %1, ptr %4, align 8, !tbaa !3
  %5 = load ptr, ptr %3, align 8
  %6 = load i64, ptr %4, align 8, !tbaa !3
  call void @_ZNSt13__atomic_baseImEC2Em(ptr noundef nonnull align 8 dereferenceable(8) %5, i64 noundef %6) #13
  ret void
}

; Function Attrs: mustprogress nounwind sspstrong uwtable
define linkonce_odr void @_ZNSt6atomicIiEC2Ei(ptr noundef nonnull align 4 dereferenceable(4) %0, i32 noundef %1) unnamed_addr #5 comdat align 2 {
  %3 = alloca ptr, align 8
  %4 = alloca i32, align 4
  store ptr %0, ptr %3, align 8, !tbaa !44
  store i32 %1, ptr %4, align 4, !tbaa !46
  %5 = load ptr, ptr %3, align 8
  %6 = load i32, ptr %4, align 4, !tbaa !46
  call void @_ZNSt13__atomic_baseIiEC2Ei(ptr noundef nonnull align 4 dereferenceable(4) %5, i32 noundef %6) #13
  ret void
}

; Function Attrs: mustprogress sspstrong uwtable
define linkonce_odr void @_ZN3tbb6detail2r141circular_doubly_linked_list_with_sentinelC2Ev(ptr noundef nonnull align 8 dereferenceable(24) %0) unnamed_addr #0 comdat align 2 {
  %2 = alloca ptr, align 8
  store ptr %0, ptr %2, align 8, !tbaa !42
  %3 = load ptr, ptr %2, align 8
  %4 = getelementptr inbounds nuw %"class.tbb::detail::r1::circular_doubly_linked_list_with_sentinel", ptr %3, i32 0, i32 0
  call void @_ZNSt6atomicImEC2Em(ptr noundef nonnull align 8 dereferenceable(8) %4, i64 noundef 0) #13
  %5 = getelementptr inbounds nuw %"class.tbb::detail::r1::circular_doubly_linked_list_with_sentinel", ptr %3, i32 0, i32 1
  %6 = getelementptr inbounds nuw %"class.tbb::detail::r1::circular_doubly_linked_list_with_sentinel", ptr %3, i32 0, i32 1
  %7 = getelementptr inbounds nuw %"class.tbb::detail::r1::circular_doubly_linked_list_with_sentinel", ptr %3, i32 0, i32 1
  call void @_ZN3tbb6detail2r141circular_doubly_linked_list_with_sentinel9base_nodeC2EPS3_S4_(ptr noundef nonnull align 8 dereferenceable(16) %5, ptr noundef %6, ptr noundef %7)
  ret void
}

; Function Attrs: mustprogress nounwind sspstrong uwtable
define linkonce_odr void @_ZN3tbb6detail2r124concurrent_monitor_mutexC2Ev(ptr noundef nonnull align 4 dereferenceable(8) %0) unnamed_addr #5 comdat align 2 {
  %2 = alloca ptr, align 8
  store ptr %0, ptr %2, align 8, !tbaa !40
  %3 = load ptr, ptr %2, align 8
  %4 = getelementptr inbounds nuw %"class.tbb::detail::r1::concurrent_monitor_mutex", ptr %3, i32 0, i32 0
  call void @_ZNSt6atomicIiEC2Ei(ptr noundef nonnull align 4 dereferenceable(4) %4, i32 noundef 0) #13
  %5 = getelementptr inbounds nuw %"class.tbb::detail::r1::concurrent_monitor_mutex", ptr %3, i32 0, i32 1
  call void @_ZNSt6atomicIiEC2Ei(ptr noundef nonnull align 4 dereferenceable(4) %5, i32 noundef 0) #13
  ret void
}

; Function Attrs: mustprogress sspstrong uwtable
define linkonce_odr void @_ZN3tbb6detail2r123concurrent_monitor_baseImEC2Ev(ptr noundef nonnull align 8 dereferenceable(36) %0) unnamed_addr #0 comdat align 2 {
  %2 = alloca ptr, align 8
  store ptr %0, ptr %2, align 8, !tbaa !17
  %3 = load ptr, ptr %2, align 8
  %4 = getelementptr inbounds nuw %"class.tbb::detail::r1::concurrent_monitor_base", ptr %3, i32 0, i32 0
  call void @_ZN3tbb6detail2r124concurrent_monitor_mutexC2Ev(ptr noundef nonnull align 4 dereferenceable(8) %4)
  %5 = getelementptr inbounds nuw %"class.tbb::detail::r1::concurrent_monitor_base", ptr %3, i32 0, i32 1
  call void @_ZN3tbb6detail2r141circular_doubly_linked_list_with_sentinelC2Ev(ptr noundef nonnull align 8 dereferenceable(24) %5)
  %6 = getelementptr inbounds nuw %"class.tbb::detail::r1::concurrent_monitor_base", ptr %3, i32 0, i32 2
  call void @llvm.memset.p0.i64(ptr align 8 %6, i8 0, i64 4, i1 false)
  ret void
}

; Function Attrs: inlinehint mustprogress sspstrong uwtable
define linkonce_odr void @_ZN3tbb6detail2r118concurrent_monitorC2Ev(ptr noundef nonnull align 8 dereferenceable(36) %0) unnamed_addr #4 comdat align 2 {
  %2 = alloca ptr, align 8
  store ptr %0, ptr %2, align 8, !tbaa !10
  %3 = load ptr, ptr %2, align 8
  call void @_ZN3tbb6detail2r123concurrent_monitor_baseImEC2Ev(ptr noundef nonnull align 8 dereferenceable(36) %3)
  ret void
}

; Function Attrs: mustprogress sspstrong uwtable
define noundef ptr @_ZN3tbb6detail2r126allocate_bounded_queue_repEm(i64 noundef %0) #0 {
  %2 = alloca i64, align 8
  %3 = alloca i64, align 8
  %4 = alloca ptr, align 8
  %5 = alloca ptr, align 8
  %6 = alloca i64, align 8
  store i64 %0, ptr %2, align 8, !tbaa !3
  call void @llvm.lifetime.start.p0(i64 8, ptr %3) #13
  store i64 80, ptr %3, align 8, !tbaa !3
  call void @llvm.lifetime.start.p0(i64 8, ptr %4) #13
  %7 = load i64, ptr %2, align 8, !tbaa !3
  %8 = load i64, ptr %3, align 8, !tbaa !3
  %9 = add i64 %7, %8
  %10 = call noundef ptr @_ZN3tbb6detail2r122cache_aligned_allocateEm(i64 noundef %9)
  store ptr %10, ptr %4, align 8, !tbaa !7
  call void @llvm.lifetime.start.p0(i64 8, ptr %5) #13
  %11 = load ptr, ptr %4, align 8, !tbaa !7
  %12 = load i64, ptr %2, align 8, !tbaa !3
  %13 = getelementptr inbounds nuw i8, ptr %11, i64 %12
  store ptr %13, ptr %5, align 8, !tbaa !10
  call void @llvm.lifetime.start.p0(i64 8, ptr %6) #13
  store i64 0, ptr %6, align 8, !tbaa !3
  br label %14

14:                                               ; preds = %22, %1
  %15 = load i64, ptr %6, align 8, !tbaa !3
  %16 = icmp ult i64 %15, 2
  br i1 %16, label %18, label %17

17:                                               ; preds = %14
  call void @llvm.lifetime.end.p0(i64 8, ptr %6) #13
  br label %25

18:                                               ; preds = %14
  %19 = load ptr, ptr %5, align 8, !tbaa !10
  %20 = load i64, ptr %6, align 8, !tbaa !3
  %21 = getelementptr inbounds nuw %"class.tbb::detail::r1::concurrent_monitor", ptr %19, i64 %20
  call void @llvm.memset.p0.i64(ptr align 8 %21, i8 0, i64 40, i1 false)
  call void @_ZN3tbb6detail2r118concurrent_monitorC2Ev(ptr noundef nonnull align 8 dereferenceable(36) %21)
  br label %22

22:                                               ; preds = %18
  %23 = load i64, ptr %6, align 8, !tbaa !3
  %24 = add i64 %23, 1
  store i64 %24, ptr %6, align 8, !tbaa !3
  br label %14, !llvm.loop !12

25:                                               ; preds = %17
  %26 = load ptr, ptr %4, align 8, !tbaa !7
  call void @llvm.lifetime.end.p0(i64 8, ptr %5) #13
  call void @llvm.lifetime.end.p0(i64 8, ptr %4) #13
  call void @llvm.lifetime.end.p0(i64 8, ptr %3) #13
  ret ptr %26
}