; Function Attrs: mustprogress sspstrong uwtable
define noundef ptr @_ZN3tbb6detail2r126allocate_bounded_queue_repEm(i64 noundef %0) local_unnamed_addr #0 {
.critedge:
  %1 = add i64 %0, 80
  %2 = tail call noundef ptr @_ZN3tbb6detail2r122cache_aligned_allocateEm(i64 noundef %1)
  %3 = getelementptr inbounds nuw i8, ptr %2, i64 %0
  %4 = getelementptr inbounds nuw i8, ptr %3, i64 16
  tail call void @llvm.memset.p0.i64(ptr noundef nonnull align 8 dereferenceable(40) %3, i8 0, i64 40, i1 false)
  store ptr %4, ptr %4, align 8, !tbaa !3
  %5 = getelementptr inbounds nuw i8, ptr %3, i64 24
  store ptr %4, ptr %5, align 8, !tbaa !9
  %6 = getelementptr inbounds nuw i8, ptr %3, i64 40
  %7 = getelementptr inbounds nuw i8, ptr %3, i64 56
  tail call void @llvm.memset.p0.i64(ptr noundef nonnull align 8 dereferenceable(40) %6, i8 0, i64 40, i1 false)
  store ptr %7, ptr %7, align 8, !tbaa !3
  %8 = getelementptr inbounds nuw i8, ptr %3, i64 64
  store ptr %7, ptr %8, align 8, !tbaa !9
  ret ptr %2
}